target datalayout = "e-m:e-p270:32:32-p271:32:32-p272:64:64-i64:64-i128:128-f80:128-n8:16:32:64-S128"
target triple = "x86_64-pc-linux-gnu"

@.str.72 = private unnamed_addr constant [2 x i8] c"\0A\00", align 1
@.str.95 = private unnamed_addr constant [23 x i8] c"../openssl/apps/dgst.c\00", align 1
@.str.109 = private unnamed_addr constant [2 x i8] c"\\\00", align 1
@.str.110 = private unnamed_addr constant [5 x i8] c"%02x\00", align 1
@.str.111 = private unnamed_addr constant [6 x i8] c" *%s\0A\00", align 1
@.str.112 = private unnamed_addr constant [4 x i8] c"-%s\00", align 1
@.str.113 = private unnamed_addr constant [7 x i8] c"(%s)= \00", align 1
@.str.114 = private unnamed_addr constant [9 x i8] c"%s(%s)= \00", align 1
@.str.115 = private unnamed_addr constant [2 x i8] c":\00", align 1

; Function Attrs: nounwind uwtable
define internal ptr @newline_escape_filename(ptr noundef %0, ptr noundef %1) #0 {
  %3 = alloca ptr, align 8
  %4 = alloca ptr, align 8
  %5 = alloca i64, align 8
  %6 = alloca i64, align 8
  %7 = alloca i64, align 8
  %8 = alloca i64, align 8
  %9 = alloca i64, align 8
  %10 = alloca ptr, align 8
  %11 = alloca i8, align 1
  store ptr %0, ptr %3, align 8, !tbaa !19
  store ptr %1, ptr %4, align 8, !tbaa !54
  call void @llvm.lifetime.start.p0(i64 8, ptr %5) #8
  call void @llvm.lifetime.start.p0(i64 8, ptr %6) #8
  store i64 0, ptr %6, align 8, !tbaa !49
  call void @llvm.lifetime.start.p0(i64 8, ptr %7) #8
  %12 = load ptr, ptr %3, align 8, !tbaa !19
  %13 = call i64 @strlen(ptr noundef %12) #9
  store i64 %13, ptr %7, align 8, !tbaa !49
  call void @llvm.lifetime.start.p0(i64 8, ptr %8) #8
  store i64 0, ptr %8, align 8, !tbaa !49
  call void @llvm.lifetime.start.p0(i64 8, ptr %9) #8
  store i64 0, ptr %9, align 8, !tbaa !49
  call void @llvm.lifetime.start.p0(i64 8, ptr %10) #8
  store ptr null, ptr %10, align 8, !tbaa !19
  store i64 0, ptr %5, align 8, !tbaa !49
  br label %14

14:                                               ; preds = %29, %2
  %15 = load i64, ptr %5, align 8, !tbaa !49
  %16 = load i64, ptr %7, align 8, !tbaa !49
  %17 = icmp ult i64 %15, %16
  br i1 %17, label %18, label %32

18:                                               ; preds = %14
  %19 = load ptr, ptr %3, align 8, !tbaa !19
  %20 = load i64, ptr %5, align 8, !tbaa !49
  %21 = getelementptr inbounds nuw i8, ptr %19, i64 %20
  %22 = load i8, ptr %21, align 1, !tbaa !46
  %23 = sext i8 %22 to i32
  %24 = icmp eq i32 %23, 10
  br i1 %24, label %25, label %28

25:                                               ; preds = %18
  %26 = load i64, ptr %8, align 8, !tbaa !49
  %27 = add i64 %26, 1
  store i64 %27, ptr %8, align 8, !tbaa !49
  br label %28

28:                                               ; preds = %25, %18
  br label %29

29:                                               ; preds = %28
  %30 = load i64, ptr %5, align 8, !tbaa !49
  %31 = add i64 %30, 1
  store i64 %31, ptr %5, align 8, !tbaa !49
  br label %14, !llvm.loop !56

32:                                               ; preds = %14
  %33 = load i64, ptr %7, align 8, !tbaa !49
  %34 = load i64, ptr %8, align 8, !tbaa !49
  %35 = add i64 %33, %34
  %36 = add i64 %35, 1
  store i64 %36, ptr %9, align 8, !tbaa !49
  %37 = load i64, ptr %9, align 8, !tbaa !49
  %38 = load ptr, ptr %3, align 8, !tbaa !19
  %39 = call ptr @app_malloc(i64 noundef %37, ptr noundef %38)
  store ptr %39, ptr %10, align 8, !tbaa !19
  store i64 0, ptr %5, align 8, !tbaa !49
  br label %40

40:                                               ; preds = %68, %32
  %41 = load i64, ptr %6, align 8, !tbaa !49
  %42 = load i64, ptr %7, align 8, !tbaa !49
  %43 = icmp ult i64 %41, %42
  br i1 %43, label %44, label %71

44:                                               ; preds = %40
  call void @llvm.lifetime.start.p0(i64 1, ptr %11) #8
  %45 = load ptr, ptr %3, align 8, !tbaa !19
  %46 = load i64, ptr %6, align 8, !tbaa !49
  %47 = getelementptr inbounds nuw i8, ptr %45, i64 %46
  %48 = load i8, ptr %47, align 1, !tbaa !46
  store i8 %48, ptr %11, align 1, !tbaa !46
  %49 = load i8, ptr %11, align 1, !tbaa !46
  %50 = sext i8 %49 to i32
  %51 = icmp eq i32 %50, 10
  br i1 %51, label %52, label %62

52:                                               ; preds = %44
  %53 = load ptr, ptr %10, align 8, !tbaa !19
  %54 = load i64, ptr %5, align 8, !tbaa !49
  %55 = add i64 %54, 1
  store i64 %55, ptr %5, align 8, !tbaa !49
  %56 = getelementptr inbounds nuw i8, ptr %53, i64 %54
  store i8 92, ptr %56, align 1, !tbaa !46
  %57 = load ptr, ptr %10, align 8, !tbaa !19
  %58 = load i64, ptr %5, align 8, !tbaa !49
  %59 = add i64 %58, 1
  store i64 %59, ptr %5, align 8, !tbaa !49
  %60 = getelementptr inbounds nuw i8, ptr %57, i64 %58
  store i8 110, ptr %60, align 1, !tbaa !46
  %61 = load ptr, ptr %4, align 8, !tbaa !54
  store i32 1, ptr %61, align 4, !tbaa !4
  br label %68

62:                                               ; preds = %44
  %63 = load i8, ptr %11, align 1, !tbaa !46
  %64 = load ptr, ptr %10, align 8, !tbaa !19
  %65 = load i64, ptr %5, align 8, !tbaa !49
  %66 = add i64 %65, 1
  store i64 %66, ptr %5, align 8, !tbaa !49
  %67 = getelementptr inbounds nuw i8, ptr %64, i64 %65
  store i8 %63, ptr %67, align 1, !tbaa !46
  br label %68

68:                                               ; preds = %62, %52
  %69 = load i64, ptr %6, align 8, !tbaa !49
  %70 = add i64 %69, 1
  store i64 %70, ptr %6, align 8, !tbaa !49
  call void @llvm.lifetime.end.p0(i64 1, ptr %11) #8
  br label %40, !llvm.loop !57

71:                                               ; preds = %40
  %72 = load ptr, ptr %10, align 8, !tbaa !19
  %73 = load i64, ptr %5, align 8, !tbaa !49
  %74 = getelementptr inbounds nuw i8, ptr %72, i64 %73
  store i8 0, ptr %74, align 1, !tbaa !46
  %75 = load ptr, ptr %10, align 8, !tbaa !19
  call void @llvm.lifetime.end.p0(i64 8, ptr %10) #8
  call void @llvm.lifetime.end.p0(i64 8, ptr %9) #8
  call void @llvm.lifetime.end.p0(i64 8, ptr %8) #8
  call void @llvm.lifetime.end.p0(i64 8, ptr %7) #8
  call void @llvm.lifetime.end.p0(i64 8, ptr %6) #8
  call void @llvm.lifetime.end.p0(i64 8, ptr %5) #8
  ret ptr %75
}

; Function Attrs: nounwind uwtable
define internal void @print_out(ptr noundef %0, ptr noundef %1, i64 noundef %2, i32 noundef %3, i32 noundef %4, ptr noundef %5, ptr noundef %6, ptr noundef %7) #0 {
  %9 = alloca ptr, align 8
  %10 = alloca ptr, align 8
  %11 = alloca i64, align 8
  %12 = alloca i32, align 4
  %13 = alloca i32, align 4
  %14 = alloca ptr, align 8
  %15 = alloca ptr, align 8
  %16 = alloca ptr, align 8
  %17 = alloca i32, align 4
  %18 = alloca i32, align 4
  store ptr %0, ptr %9, align 8, !tbaa !11
  store ptr %1, ptr %10, align 8, !tbaa !19
  store i64 %2, ptr %11, align 8, !tbaa !49
  store i32 %3, ptr %12, align 4, !tbaa !4
  store i32 %4, ptr %13, align 4, !tbaa !4
  store ptr %5, ptr %14, align 8, !tbaa !19
  store ptr %6, ptr %15, align 8, !tbaa !19
  store ptr %7, ptr %16, align 8, !tbaa !19
  call void @llvm.lifetime.start.p0(i64 4, ptr %17) #8
  call void @llvm.lifetime.start.p0(i64 4, ptr %18) #8
  store i32 0, ptr %18, align 4, !tbaa !4
  %19 = load i32, ptr %13, align 4, !tbaa !4
  %20 = icmp ne i32 %19, 0
  br i1 %20, label %21, label %27

21:                                               ; preds = %8
  %22 = load ptr, ptr %9, align 8, !tbaa !11
  %23 = load ptr, ptr %10, align 8, !tbaa !19
  %24 = load i64, ptr %11, align 8, !tbaa !49
  %25 = trunc i64 %24 to i32
  %26 = call i32 @BIO_write(ptr noundef %22, ptr noundef %23, i32 noundef %25)
  br label %122

27:                                               ; preds = %8
  %28 = load i32, ptr %12, align 4, !tbaa !4
  %29 = icmp eq i32 %28, 2
  br i1 %29, label %30, label %61

30:                                               ; preds = %27
  %31 = load ptr, ptr %16, align 8, !tbaa !19
  %32 = call ptr @newline_escape_filename(ptr noundef %31, ptr noundef %18)
  store ptr %32, ptr %16, align 8, !tbaa !19
  %33 = load i32, ptr %18, align 4, !tbaa !4
  %34 = icmp eq i32 %33, 1
  br i1 %34, label %35, label %38

35:                                               ; preds = %30
  %36 = load ptr, ptr %9, align 8, !tbaa !11
  %37 = call i32 @BIO_puts(ptr noundef %36, ptr noundef @.str.109)
  br label %38

38:                                               ; preds = %35, %30
  store i32 0, ptr %17, align 4, !tbaa !4
  br label %39

39:                                               ; preds = %53, %38
  %40 = load i32, ptr %17, align 4, !tbaa !4
  %41 = load i64, ptr %11, align 8, !tbaa !49
  %42 = trunc i64 %41 to i32
  %43 = icmp slt i32 %40, %42
  br i1 %43, label %44, label %56

44:                                               ; preds = %39
  %45 = load ptr, ptr %9, align 8, !tbaa !11
  %46 = load ptr, ptr %10, align 8, !tbaa !19
  %47 = load i32, ptr %17, align 4, !tbaa !4
  %48 = sext i32 %47 to i64
  %49 = getelementptr inbounds i8, ptr %46, i64 %48
  %50 = load i8, ptr %49, align 1, !tbaa !46
  %51 = zext i8 %50 to i32
  %52 = call i32 (ptr, ptr, ...) @BIO_printf(ptr noundef %45, ptr noundef @.str.110, i32 noundef %51)
  br label %53

53:                                               ; preds = %44
  %54 = load i32, ptr %17, align 4, !tbaa !4
  %55 = add nsw i32 %54, 1
  store i32 %55, ptr %17, align 4, !tbaa !4
  br label %39, !llvm.loop !52

56:                                               ; preds = %39
  %57 = load ptr, ptr %9, align 8, !tbaa !11
  %58 = load ptr, ptr %16, align 8, !tbaa !19
  %59 = call i32 (ptr, ptr, ...) @BIO_printf(ptr noundef %57, ptr noundef @.str.111, ptr noundef %58)
  %60 = load ptr, ptr %16, align 8, !tbaa !19
  call void @CRYPTO_free(ptr noundef %60, ptr noundef @.str.95, i32 noundef 590)
  br label %121

61:                                               ; preds = %27
  %62 = load ptr, ptr %14, align 8, !tbaa !19
  %63 = icmp ne ptr %62, null
  br i1 %63, label %64, label %78

64:                                               ; preds = %61
  %65 = load ptr, ptr %9, align 8, !tbaa !11
  %66 = load ptr, ptr %14, align 8, !tbaa !19
  %67 = call i32 @BIO_puts(ptr noundef %65, ptr noundef %66)
  %68 = load ptr, ptr %15, align 8, !tbaa !19
  %69 = icmp ne ptr %68, null
  br i1 %69, label %70, label %74

70:                                               ; preds = %64
  %71 = load ptr, ptr %9, align 8, !tbaa !11
  %72 = load ptr, ptr %15, align 8, !tbaa !19
  %73 = call i32 (ptr, ptr, ...) @BIO_printf(ptr noundef %71, ptr noundef @.str.112, ptr noundef %72)
  br label %74

74:                                               ; preds = %70, %64
  %75 = load ptr, ptr %9, align 8, !tbaa !11
  %76 = load ptr, ptr %16, align 8, !tbaa !19
  %77 = call i32 (ptr, ptr, ...) @BIO_printf(ptr noundef %75, ptr noundef @.str.113, ptr noundef %76)
  br label %91

78:                                               ; preds = %61
  %79 = load ptr, ptr %15, align 8, !tbaa !19
  %80 = icmp ne ptr %79, null
  br i1 %80, label %81, label %86

81:                                               ; preds = %78
  %82 = load ptr, ptr %9, align 8, !tbaa !11
  %83 = load ptr, ptr %15, align 8, !tbaa !19
  %84 = load ptr, ptr %16, align 8, !tbaa !19
  %85 = call i32 (ptr, ptr, ...) @BIO_printf(ptr noundef %82, ptr noundef @.str.114, ptr noundef %83, ptr noundef %84)
  br label %90

86:                                               ; preds = %78
  %87 = load ptr, ptr %9, align 8, !tbaa !11
  %88 = load ptr, ptr %16, align 8, !tbaa !19
  %89 = call i32 (ptr, ptr, ...) @BIO_printf(ptr noundef %87, ptr noundef @.str.113, ptr noundef %88)
  br label %90

90:                                               ; preds = %86, %81
  br label %91

91:                                               ; preds = %90, %74
  store i32 0, ptr %17, align 4, !tbaa !4
  br label %92

92:                                               ; preds = %115, %91
  %93 = load i32, ptr %17, align 4, !tbaa !4
  %94 = load i64, ptr %11, align 8, !tbaa !49
  %95 = trunc i64 %94 to i32
  %96 = icmp slt i32 %93, %95
  br i1 %96, label %97, label %118

97:                                               ; preds = %92
  %98 = load i32, ptr %12, align 4, !tbaa !4
  %99 = icmp ne i32 %98, 0
  br i1 %99, label %100, label %106

100:                                              ; preds = %97
  %101 = load i32, ptr %17, align 4, !tbaa !4
  %102 = icmp ne i32 %101, 0
  br i1 %102, label %103, label %106

103:                                              ; preds = %100
  %104 = load ptr, ptr %9, align 8, !tbaa !11
  %105 = call i32 (ptr, ptr, ...) @BIO_printf(ptr noundef %104, ptr noundef @.str.115)
  br label %106

106:                                              ; preds = %103, %100, %97
  %107 = load ptr, ptr %9, align 8, !tbaa !11
  %108 = load ptr, ptr %10, align 8, !tbaa !19
  %109 = load i32, ptr %17, align 4, !tbaa !4
  %110 = sext i32 %109 to i64
  %111 = getelementptr inbounds i8, ptr %108, i64 %110
  %112 = load i8, ptr %111, align 1, !tbaa !46
  %113 = zext i8 %112 to i32
  %114 = call i32 (ptr, ptr, ...) @BIO_printf(ptr noundef %107, ptr noundef @.str.110, i32 noundef %113)
  br label %115

115:                                              ; preds = %106
  %116 = load i32, ptr %17, align 4, !tbaa !4
  %117 = add nsw i32 %116, 1
  store i32 %117, ptr %17, align 4, !tbaa !4
  br label %92, !llvm.loop !53

118:                                              ; preds = %92
  %119 = load ptr, ptr %9, align 8, !tbaa !11
  %120 = call i32 (ptr, ptr, ...) @BIO_printf(ptr noundef %119, ptr noundef @.str.72)
  br label %121

121:                                              ; preds = %118, %56
  br label %122

122:                                              ; preds = %121, %21
  call void @llvm.lifetime.end.p0(i64 4, ptr %18) #8
  call void @llvm.lifetime.end.p0(i64 4, ptr %17) #8
  ret void
}