; Function Attrs: nounwind uwtable
define internal fastcc void @print_out(ptr noundef %0, ptr noundef %1, i64 noundef %2, i32 noundef %3, i32 noundef %4, ptr noundef %5, ptr noundef %6, ptr noundef %7) unnamed_addr #0 {
  %.not = icmp eq i32 %4, 0
  br i1 %.not, label %12, label %9

9:                                                ; preds = %8
  %10 = trunc i64 %2 to i32
  %11 = tail call i32 @BIO_write(ptr noundef %0, ptr noundef %1, i32 noundef %10) #8
  br label %76

12:                                               ; preds = %8
  %13 = icmp eq i32 %3, 2
  br i1 %13, label %14, label %49

14:                                               ; preds = %12
  %15 = tail call i64 @strlen(ptr noundef nonnull dereferenceable(1) %7) #9
  %.not.i = icmp eq i64 %15, 0
  br i1 %.not.i, label %newline_escape_filename.exit.thread, label %.lr.ph.i

newline_escape_filename.exit.thread:              ; preds = %14
  %16 = tail call ptr @app_malloc(i64 noundef 1, ptr noundef nonnull %7) #8
  store i8 0, ptr %16, align 1, !tbaa !33
  br label %40

.lr.ph.i:                                         ; preds = %14, %.lr.ph.i
  %.032.i = phi i64 [ %21, %.lr.ph.i ], [ 0, %14 ]
  %.02731.i = phi i64 [ %spec.select.i, %.lr.ph.i ], [ 0, %14 ]
  %17 = getelementptr inbounds nuw i8, ptr %7, i64 %.032.i
  %18 = load i8, ptr %17, align 1, !tbaa !33
  %19 = icmp eq i8 %18, 10
  %20 = zext i1 %19 to i64
  %spec.select.i = add i64 %.02731.i, %20
  %21 = add nuw i64 %.032.i, 1
  %exitcond.not.i = icmp eq i64 %21, %15
  br i1 %exitcond.not.i, label %.lr.ph36.preheader.i, label %.lr.ph.i, !llvm.loop !39

.lr.ph36.preheader.i:                             ; preds = %.lr.ph.i
  %22 = add i64 %15, 1
  %23 = add i64 %22, %spec.select.i
  %24 = tail call ptr @app_malloc(i64 noundef %23, ptr noundef nonnull %7) #8
  br label %.lr.ph36.i.outer

.lr.ph36.i.outer:                                 ; preds = %.thread, %.lr.ph36.preheader.i
  %.not51 = phi i1 [ false, %.thread ], [ true, %.lr.ph36.preheader.i ]
  %.134.i.ph = phi i64 [ %33, %.thread ], [ 0, %.lr.ph36.preheader.i ]
  %.02933.i.ph = phi i64 [ %35, %.thread ], [ 0, %.lr.ph36.preheader.i ]
  br label %.lr.ph36.i

.lr.ph36.i:                                       ; preds = %.lr.ph36.i.outer, %28
  %.134.i = phi i64 [ %29, %28 ], [ %.134.i.ph, %.lr.ph36.i.outer ]
  %.02933.i = phi i64 [ %31, %28 ], [ %.02933.i.ph, %.lr.ph36.i.outer ]
  %25 = getelementptr inbounds nuw i8, ptr %7, i64 %.02933.i
  %26 = load i8, ptr %25, align 1, !tbaa !33
  %27 = icmp eq i8 %26, 10
  br i1 %27, label %.thread, label %28

28:                                               ; preds = %.lr.ph36.i
  %29 = add i64 %.134.i, 1
  %30 = getelementptr inbounds nuw i8, ptr %24, i64 %.134.i
  store i8 %26, ptr %30, align 1, !tbaa !33
  %31 = add nuw i64 %.02933.i, 1
  %exitcond40.not.i = icmp eq i64 %31, %15
  br i1 %exitcond40.not.i, label %newline_escape_filename.exit, label %.lr.ph36.i, !llvm.loop !40

.thread:                                          ; preds = %.lr.ph36.i
  %32 = getelementptr inbounds nuw i8, ptr %24, i64 %.134.i
  store i8 92, ptr %32, align 1, !tbaa !33
  %33 = add i64 %.134.i, 2
  %34 = getelementptr i8, ptr %32, i64 1
  store i8 110, ptr %34, align 1, !tbaa !33
  %35 = add nuw i64 %.02933.i, 1
  %exitcond40.not.i73 = icmp eq i64 %35, %15
  br i1 %exitcond40.not.i73, label %newline_escape_filename.exit.thread76, label %.lr.ph36.i.outer, !llvm.loop !40

newline_escape_filename.exit.thread76:            ; preds = %.thread
  %36 = getelementptr inbounds nuw i8, ptr %24, i64 %33
  store i8 0, ptr %36, align 1, !tbaa !33
  br label %38

newline_escape_filename.exit:                     ; preds = %28
  %37 = getelementptr inbounds nuw i8, ptr %24, i64 %29
  store i8 0, ptr %37, align 1, !tbaa !33
  br i1 %.not51, label %40, label %38

38:                                               ; preds = %newline_escape_filename.exit.thread76, %newline_escape_filename.exit
  %39 = tail call i32 @BIO_puts(ptr noundef %0, ptr noundef nonnull @.str.109) #8
  br label %40

40:                                               ; preds = %newline_escape_filename.exit.thread, %38, %newline_escape_filename.exit
  %41 = phi ptr [ %16, %newline_escape_filename.exit.thread ], [ %24, %38 ], [ %24, %newline_escape_filename.exit ]
  %42 = trunc i64 %2 to i32
  %43 = icmp sgt i32 %42, 0
  br i1 %43, label %.lr.ph55.preheader, label %._crit_edge56

.lr.ph55.preheader:                               ; preds = %40
  %wide.trip.count69 = and i64 %2, 2147483647
  br label %.lr.ph55

.lr.ph55:                                         ; preds = %.lr.ph55.preheader, %.lr.ph55
  %indvars.iv66 = phi i64 [ 0, %.lr.ph55.preheader ], [ %indvars.iv.next67, %.lr.ph55 ]
  %44 = getelementptr inbounds nuw i8, ptr %1, i64 %indvars.iv66
  %45 = load i8, ptr %44, align 1, !tbaa !33
  %46 = zext i8 %45 to i32
  %47 = tail call i32 (ptr, ptr, ...) @BIO_printf(ptr noundef %0, ptr noundef nonnull @.str.110, i32 noundef %46) #8
  %indvars.iv.next67 = add nuw nsw i64 %indvars.iv66, 1
  %exitcond70.not = icmp eq i64 %indvars.iv.next67, %wide.trip.count69
  br i1 %exitcond70.not, label %._crit_edge56, label %.lr.ph55, !llvm.loop !41

._crit_edge56:                                    ; preds = %.lr.ph55, %40
  %48 = tail call i32 (ptr, ptr, ...) @BIO_printf(ptr noundef %0, ptr noundef nonnull @.str.111, ptr noundef %41) #8
  tail call void @CRYPTO_free(ptr noundef %41, ptr noundef nonnull @.str.95, i32 noundef 590) #8
  br label %76

49:                                               ; preds = %12
  %.not44 = icmp eq ptr %5, null
  br i1 %.not44, label %56, label %50

50:                                               ; preds = %49
  %51 = tail call i32 @BIO_puts(ptr noundef %0, ptr noundef nonnull %5) #8
  %.not46 = icmp eq ptr %6, null
  br i1 %.not46, label %54, label %52

52:                                               ; preds = %50
  %53 = tail call i32 (ptr, ptr, ...) @BIO_printf(ptr noundef %0, ptr noundef nonnull @.str.112, ptr noundef nonnull %6) #8
  br label %54

54:                                               ; preds = %52, %50
  %55 = tail call i32 (ptr, ptr, ...) @BIO_printf(ptr noundef %0, ptr noundef nonnull @.str.113, ptr noundef %7) #8
  br label %61

56:                                               ; preds = %49
  %.not45 = icmp eq ptr %6, null
  br i1 %.not45, label %59, label %57

57:                                               ; preds = %56
  %58 = tail call i32 (ptr, ptr, ...) @BIO_printf(ptr noundef %0, ptr noundef nonnull @.str.114, ptr noundef nonnull %6, ptr noundef %7) #8
  br label %61

59:                                               ; preds = %56
  %60 = tail call i32 (ptr, ptr, ...) @BIO_printf(ptr noundef %0, ptr noundef nonnull @.str.113, ptr noundef %7) #8
  br label %61

61:                                               ; preds = %57, %59, %54
  %62 = trunc i64 %2 to i32
  %63 = icmp sgt i32 %62, 0
  br i1 %63, label %.lr.ph, label %._crit_edge

.lr.ph:                                           ; preds = %61
  %.not57 = icmp eq i32 %3, 0
  %wide.trip.count64 = and i64 %2, 2147483647
  br i1 %.not57, label %.lr.ph.split.us, label %.lr.ph.split

.lr.ph.split.us:                                  ; preds = %.lr.ph, %.lr.ph.split.us
  %indvars.iv61 = phi i64 [ %indvars.iv.next62, %.lr.ph.split.us ], [ 0, %.lr.ph ]
  %64 = getelementptr inbounds nuw i8, ptr %1, i64 %indvars.iv61
  %65 = load i8, ptr %64, align 1, !tbaa !33
  %66 = zext i8 %65 to i32
  %67 = tail call i32 (ptr, ptr, ...) @BIO_printf(ptr noundef %0, ptr noundef nonnull @.str.110, i32 noundef %66) #8
  %indvars.iv.next62 = add nuw nsw i64 %indvars.iv61, 1
  %exitcond65.not = icmp eq i64 %indvars.iv.next62, %wide.trip.count64
  br i1 %exitcond65.not, label %._crit_edge, label %.lr.ph.split.us, !llvm.loop !42

.lr.ph.split:                                     ; preds = %.lr.ph, %70
  %indvars.iv = phi i64 [ %indvars.iv.next, %70 ], [ 0, %.lr.ph ]
  %.not58 = icmp eq i64 %indvars.iv, 0
  br i1 %.not58, label %70, label %68

68:                                               ; preds = %.lr.ph.split
  %69 = tail call i32 (ptr, ptr, ...) @BIO_printf(ptr noundef %0, ptr noundef nonnull @.str.115) #8
  br label %70

70:                                               ; preds = %68, %.lr.ph.split
  %71 = getelementptr inbounds nuw i8, ptr %1, i64 %indvars.iv
  %72 = load i8, ptr %71, align 1, !tbaa !33
  %73 = zext i8 %72 to i32
  %74 = tail call i32 (ptr, ptr, ...) @BIO_printf(ptr noundef %0, ptr noundef nonnull @.str.110, i32 noundef %73) #8
  %indvars.iv.next = add nuw nsw i64 %indvars.iv, 1
  %exitcond.not = icmp eq i64 %indvars.iv.next, %wide.trip.count64
  br i1 %exitcond.not, label %._crit_edge, label %.lr.ph.split, !llvm.loop !42

._crit_edge:                                      ; preds = %70, %.lr.ph.split.us, %61
  %75 = tail call i32 (ptr, ptr, ...) @BIO_printf(ptr noundef %0, ptr noundef nonnull @.str.72) #8
  br label %76

76:                                               ; preds = %._crit_edge56, %._crit_edge, %9
  ret void
}